(dp0
S'best_external_reward'
p1
cnumpy.core.multiarray
scalar
p2
(cnumpy
dtype
p3
(S'f8'
p4
I0
I1
tp5
Rp6
(I3
S'<'
p7
NNNI-1
I-1
I0
tp8
bS')\xcb\x10\xc7\xba8\x08@'
p9
tp10
Rp11
sS'external_reward_mode2best_reward'
p12
(dp13
I1
g11
ssS'best_cf_acc_iter'
p14
I1000
sS'agent_current_time_steps'
p15
(lp16
I15398
aI17068
aI15808
aI16661
aI44000
asS'best_averaged_low_level_iter'
p17
I250
sS'best_cf_acc'
p18
g2
(g6
S'b\x10X9\xb4\xc8\xea?'
p19
tp20
Rp21
sS'iteration'
p22
I1999
sS'best_averaged_internal_reward'
p23
g2
(g6
S')\xcb\x10\xc7\xba8\xe8?'
p24
tp25
Rp26
sS'external_reward_mode2best_iter'
p27
(dp28
I1
I250
ssS'best_high_level_iter'
p29
I250
s.