(dp0
S'best_external_reward'
p1
cnumpy.core.multiarray
scalar
p2
(cnumpy
dtype
p3
(S'f8'
p4
I0
I1
tp5
Rp6
(I3
S'<'
p7
NNNI-1
I-1
I0
tp8
bS'3\xa2\xb47\xf8B\x08@'
p9
tp10
Rp11
sS'external_reward_mode2best_reward'
p12
(dp13
I1
g11
ssS'best_cf_acc_iter'
p14
I500
sS'agent_current_time_steps'
p15
(lp16
I9811
aI10857
aI10062
aI10624
aI28000
asS'best_averaged_low_level_iter'
p17
I500
sS'best_cf_acc'
p18
g2
(g6
S'5^\xbaI\x0c\x02\xeb?'
p19
tp20
Rp21
sS'iteration'
p22
I1999
sS'best_averaged_internal_reward'
p23
g2
(g6
S'3\xa2\xb47\xf8B\xe8?'
p24
tp25
Rp26
sS'external_reward_mode2best_iter'
p27
(dp28
I1
I500
ssS'best_high_level_iter'
p29
I500
s.